; Function Attrs: mustprogress uwtable
define hidden noundef zeroext i1 @_ZN4cvc58internal6theory9ExtTheory12doInferencesEiRSt6vectorINS0_12NodeTemplateILb1EEESaIS5_EE(ptr noundef nonnull align 8 dereferenceable(584) %0, i32 noundef %1, ptr noundef nonnull align 8 dereferenceable(24) %2) local_unnamed_addr #3 align 2 personality ptr @__gxx_personality_v0 {
  %4 = alloca %"class.std::vector.413", align 8
  call void @llvm.lifetime.start.p0(i64 24, ptr nonnull %4) #26
  call void @_ZNK4cvc58internal6theory9ExtTheory9getActiveEv(ptr dead_on_unwind nonnull writable sret(%"class.std::vector.413") align 8 %4, ptr noundef nonnull align 8 dereferenceable(584) %0)
  %5 = invoke noundef zeroext i1 @_ZN4cvc58internal6theory9ExtTheory20doInferencesInternalEiRKSt6vectorINS0_12NodeTemplateILb1EEESaIS5_EERS7_(ptr noundef nonnull align 8 dereferenceable(584) %0, i32 noundef %1, ptr noundef nonnull align 8 dereferenceable(24) %4, ptr noundef nonnull align 8 dereferenceable(24) %2)
          to label %6 unwind label %31

6:                                                ; preds = %3
  %7 = load ptr, ptr %4, align 8, !tbaa !74
  %8 = getelementptr inbounds nuw i8, ptr %4, i64 8
  %9 = load ptr, ptr %8, align 8, !tbaa !67
  %.not4.i.i.i.i = icmp eq ptr %7, %9
  br i1 %.not4.i.i.i.i, label %_ZSt8_DestroyIPN4cvc58internal12NodeTemplateILb1EEES3_EvT_S5_RSaIT0_E.exit.i, label %.lr.ph.i.i.i.i

.lr.ph.i.i.i.i:                                   ; preds = %6, %_ZSt8_DestroyIN4cvc58internal12NodeTemplateILb1EEEEvPT_.exit.i.i.i.i
  %.05.i.i.i.i = phi ptr [ %23, %_ZSt8_DestroyIN4cvc58internal12NodeTemplateILb1EEEEvPT_.exit.i.i.i.i ], [ %7, %6 ]
  %10 = load ptr, ptr %.05.i.i.i.i, align 8, !tbaa !17
  %11 = load i64, ptr %10, align 8
  %12 = and i64 %11, 1152920405095219200
  %.not.i.i.i.i.i.i.i = icmp eq i64 %12, 1152920405095219200
  br i1 %.not.i.i.i.i.i.i.i, label %_ZSt8_DestroyIN4cvc58internal12NodeTemplateILb1EEEEvPT_.exit.i.i.i.i, label %13, !prof !63

13:                                               ; preds = %.lr.ph.i.i.i.i
  %14 = add i64 %11, 1152920405095219200
  %15 = and i64 %14, 1152920405095219200
  %16 = and i64 %11, -1152920405095219201
  %17 = or disjoint i64 %15, %16
  store i64 %17, ptr %10, align 8
  %18 = icmp eq i64 %15, 0
  br i1 %18, label %19, label %_ZSt8_DestroyIN4cvc58internal12NodeTemplateILb1EEEEvPT_.exit.i.i.i.i, !prof !63

19:                                               ; preds = %13
  invoke void @_ZN4cvc58internal4expr9NodeValue15markForDeletionEv(ptr noundef nonnull align 8 dereferenceable(24) %10)
          to label %_ZSt8_DestroyIN4cvc58internal12NodeTemplateILb1EEEEvPT_.exit.i.i.i.i unwind label %20

20:                                               ; preds = %19
  %21 = landingpad { ptr, i32 }
          catch ptr null
  %22 = extractvalue { ptr, i32 } %21, 0
  call void @__clang_call_terminate(ptr %22) #27
  unreachable

_ZSt8_DestroyIN4cvc58internal12NodeTemplateILb1EEEEvPT_.exit.i.i.i.i: ; preds = %19, %13, %.lr.ph.i.i.i.i
  %23 = getelementptr inbounds nuw i8, ptr %.05.i.i.i.i, i64 8
  %.not.i.i.i.i = icmp eq ptr %23, %9
  br i1 %.not.i.i.i.i, label %_ZSt8_DestroyIPN4cvc58internal12NodeTemplateILb1EEES3_EvT_S5_RSaIT0_E.exitthread-pre-split.i, label %.lr.ph.i.i.i.i, !llvm.loop !75

_ZSt8_DestroyIPN4cvc58internal12NodeTemplateILb1EEES3_EvT_S5_RSaIT0_E.exitthread-pre-split.i: ; preds = %_ZSt8_DestroyIN4cvc58internal12NodeTemplateILb1EEEEvPT_.exit.i.i.i.i
  %.pr.i = load ptr, ptr %4, align 8, !tbaa !74
  br label %_ZSt8_DestroyIPN4cvc58internal12NodeTemplateILb1EEES3_EvT_S5_RSaIT0_E.exit.i

_ZSt8_DestroyIPN4cvc58internal12NodeTemplateILb1EEES3_EvT_S5_RSaIT0_E.exit.i: ; preds = %_ZSt8_DestroyIPN4cvc58internal12NodeTemplateILb1EEES3_EvT_S5_RSaIT0_E.exitthread-pre-split.i, %6
  %24 = phi ptr [ %.pr.i, %_ZSt8_DestroyIPN4cvc58internal12NodeTemplateILb1EEES3_EvT_S5_RSaIT0_E.exitthread-pre-split.i ], [ %7, %6 ]
  %.not.i.i.i = icmp eq ptr %24, null
  br i1 %.not.i.i.i, label %_ZNSt6vectorIN4cvc58internal12NodeTemplateILb1EEESaIS3_EED2Ev.exit, label %25

25:                                               ; preds = %_ZSt8_DestroyIPN4cvc58internal12NodeTemplateILb1EEES3_EvT_S5_RSaIT0_E.exit.i
  %26 = getelementptr inbounds nuw i8, ptr %4, i64 16
  %27 = load ptr, ptr %26, align 8, !tbaa !73
  %28 = ptrtoint ptr %27 to i64
  %29 = ptrtoint ptr %24 to i64
  %30 = sub i64 %28, %29
  call void @_ZdlPvm(ptr noundef nonnull %24, i64 noundef %30) #29
  br label %_ZNSt6vectorIN4cvc58internal12NodeTemplateILb1EEESaIS3_EED2Ev.exit

_ZNSt6vectorIN4cvc58internal12NodeTemplateILb1EEESaIS3_EED2Ev.exit: ; preds = %_ZSt8_DestroyIPN4cvc58internal12NodeTemplateILb1EEES3_EvT_S5_RSaIT0_E.exit.i, %25
  call void @llvm.lifetime.end.p0(i64 24, ptr nonnull %4) #26
  ret i1 %5

31:                                               ; preds = %3
  %32 = landingpad { ptr, i32 }
          cleanup
  call void @_ZNSt6vectorIN4cvc58internal12NodeTemplateILb1EEESaIS3_EED2Ev(ptr noundef nonnull align 8 dereferenceable(24) %4) #26
  call void @llvm.lifetime.end.p0(i64 24, ptr nonnull %4) #26
  resume { ptr, i32 } %32
}